target datalayout = "e-m:e-p270:32:32-p271:32:32-p272:64:64-i64:64-i128:128-f80:128-n8:16:32:64-S128"
target triple = "x86_64-pc-linux-gnu"

%struct.__sigset_t = type { [16 x i64] }
%struct.sigaction = type { %union.anon, %struct.__sigset_t, i32, ptr }
%union.anon = type { ptr }

@global_sigmask = internal global %struct.__sigset_t zeroinitializer, align 8

; Function Attrs: nounwind uwtable
define void @zend_signal(i32 noundef %0, ptr noundef %1) #0 {
  %3 = alloca i32, align 4
  %4 = alloca ptr, align 8
  %5 = alloca %struct.sigaction, align 8
  store i32 %0, ptr %3, align 4
  store ptr %1, ptr %4, align 8
  call void @llvm.memset.p0.i64(ptr align 8 %5, i8 0, i64 152, i1 false)
  %6 = getelementptr inbounds %struct.sigaction, ptr %5, i32 0, i32 2
  store i32 0, ptr %6, align 8
  %7 = load ptr, ptr %4, align 8
  %8 = getelementptr inbounds %struct.sigaction, ptr %5, i32 0, i32 0
  store ptr %7, ptr %8, align 8
  %9 = getelementptr inbounds %struct.sigaction, ptr %5, i32 0, i32 1
  call void @llvm.memcpy.p0.p0.i64(ptr align 8 %9, ptr align 8 @global_sigmask, i64 128, i1 false)
  %10 = load i32, ptr %3, align 4
  call void @zend_sigaction(i32 noundef %10, ptr noundef %5, ptr noundef null)
  ret void
}