; Function Attrs: nounwind uwtable
define void @zend_signal(i32 noundef %0, ptr noundef %1) local_unnamed_addr #0 {
  %3 = alloca %struct.sigaction, align 8
  %4 = getelementptr inbounds i8, ptr %3, i64 136
  call void @llvm.memset.p0.i64(ptr noundef nonnull align 8 dereferenceable(16) %4, i8 0, i64 16, i1 false)
  store ptr %1, ptr %3, align 8
  %5 = getelementptr inbounds i8, ptr %3, i64 8
  call void @llvm.memcpy.p0.p0.i64(ptr noundef nonnull align 8 dereferenceable(128) %5, ptr noundef nonnull align 8 dereferenceable(128) @global_sigmask, i64 128, i1 false)
  call void @zend_sigaction(i32 noundef %0, ptr noundef nonnull %3, ptr noundef null)
  ret void
}